target datalayout = "e-m:e-p270:32:32-p271:32:32-p272:64:64-i64:64-i128:128-f80:128-n8:16:32:64-S128"
target triple = "x86_64-pc-linux-gnu"

%"class.llvm::DependenceInfo" = type <{ ptr, ptr, ptr, ptr, i32, i32, i32, [4 x i8] }>
%"class.llvm::SCEV.base" = type <{ %"class.llvm::FoldingSetBase::Node", %"class.llvm::FoldingSetNodeIDRef", i16, i16, i16 }>
%"class.llvm::FoldingSetBase::Node" = type { ptr }
%"class.llvm::FoldingSetNodeIDRef" = type { ptr, i64 }
%"class.llvm::SCEVAddRecExpr" = type { %"class.llvm::SCEVNAryExpr", ptr }
%"class.llvm::SCEVNAryExpr" = type { %"class.llvm::SCEV.base", ptr, i64 }
%"class.llvm::SCEV" = type <{ %"class.llvm::FoldingSetBase::Node", %"class.llvm::FoldingSetNodeIDRef", i16, i16, i16, [2 x i8] }>

; Function Attrs: mustprogress nounwind uwtable
define linkonce_odr hidden noundef zeroext i16 @_ZNK4llvm4SCEV11getSCEVTypeEv(ptr noundef nonnull align 8 dereferenceable(30) %0) #1 comdat align 2 {
  %2 = alloca ptr, align 8
  store ptr %0, ptr %2, align 8
  %3 = load ptr, ptr %2, align 8
  %4 = getelementptr inbounds nuw %"class.llvm::SCEV", ptr %3, i32 0, i32 2
  %5 = load i16, ptr %4, align 8
  ret i16 %5
}

; Function Attrs: mustprogress nounwind uwtable
define linkonce_odr hidden noundef zeroext i1 @_ZN4llvm14SCEVAddRecExpr7classofEPKNS_4SCEVE(ptr noundef %0) #1 comdat align 2 {
  %2 = alloca ptr, align 8
  store ptr %0, ptr %2, align 8
  %3 = load ptr, ptr %2, align 8
  %4 = call noundef zeroext i16 @_ZNK4llvm4SCEV11getSCEVTypeEv(ptr noundef nonnull align 8 dereferenceable(30) %3)
  %5 = zext i16 %4 to i32
  %6 = icmp eq i32 %5, 8
  ret i1 %6
}

; Function Attrs: mustprogress nounwind uwtable
define linkonce_odr hidden noundef zeroext i1 @_ZN4llvm8isa_implINS_14SCEVAddRecExprENS_4SCEVEvE4doitERKS2_(ptr noundef nonnull align 8 dereferenceable(30) %0) #1 comdat align 2 {
  %2 = alloca ptr, align 8
  store ptr %0, ptr %2, align 8
  %3 = load ptr, ptr %2, align 8
  %4 = call noundef zeroext i1 @_ZN4llvm14SCEVAddRecExpr7classofEPKNS_4SCEVE(ptr noundef %3)
  ret i1 %4
}

; Function Attrs: mustprogress nounwind uwtable
define linkonce_odr hidden noundef zeroext i1 @_ZN4llvm11isa_impl_clINS_14SCEVAddRecExprEPKNS_4SCEVEE4doitES4_(ptr noundef %0) #1 comdat align 2 {
  %2 = alloca ptr, align 8
  store ptr %0, ptr %2, align 8
  %3 = load ptr, ptr %2, align 8
  %4 = call noundef zeroext i1 @_ZN4llvm8isa_implINS_14SCEVAddRecExprENS_4SCEVEvE4doitERKS2_(ptr noundef nonnull align 8 dereferenceable(30) %3)
  ret i1 %4
}

; Function Attrs: mustprogress nounwind uwtable
define linkonce_odr hidden noundef nonnull align 8 dereferenceable(8) ptr @_ZN4llvm13simplify_typeIPKNS_4SCEVEE18getSimplifiedValueERS3_(ptr noundef nonnull align 8 dereferenceable(8) %0) #1 comdat align 2 {
  %2 = alloca ptr, align 8
  store ptr %0, ptr %2, align 8
  %3 = load ptr, ptr %2, align 8
  ret ptr %3
}

; Function Attrs: mustprogress nounwind uwtable
define linkonce_odr hidden noundef zeroext i1 @_ZN4llvm13isa_impl_wrapINS_14SCEVAddRecExprEPKNS_4SCEVES4_E4doitERKS4_(ptr noundef nonnull align 8 dereferenceable(8) %0) #1 comdat align 2 {
  %2 = alloca ptr, align 8
  store ptr %0, ptr %2, align 8
  %3 = load ptr, ptr %2, align 8
  %4 = load ptr, ptr %3, align 8
  %5 = call noundef zeroext i1 @_ZN4llvm11isa_impl_clINS_14SCEVAddRecExprEPKNS_4SCEVEE4doitES4_(ptr noundef %4)
  ret i1 %5
}

; Function Attrs: mustprogress nounwind uwtable
define linkonce_odr hidden noundef ptr @_ZN4llvm13simplify_typeIKPKNS_4SCEVEE18getSimplifiedValueERS4_(ptr noundef nonnull align 8 dereferenceable(8) %0) #1 comdat align 2 {
  %2 = alloca ptr, align 8
  store ptr %0, ptr %2, align 8
  %3 = load ptr, ptr %2, align 8
  %4 = call noundef nonnull align 8 dereferenceable(8) ptr @_ZN4llvm13simplify_typeIPKNS_4SCEVEE18getSimplifiedValueERS3_(ptr noundef nonnull align 8 dereferenceable(8) %3)
  %5 = load ptr, ptr %4, align 8
  ret ptr %5
}

; Function Attrs: mustprogress nounwind uwtable
define linkonce_odr hidden noundef ptr @_ZN4llvm16cast_convert_valINS_14SCEVAddRecExprEPKNS_4SCEVES4_E4doitES4_(ptr noundef %0) #1 comdat align 2 {
  %2 = alloca ptr, align 8
  store ptr %0, ptr %2, align 8
  %3 = load ptr, ptr %2, align 8
  ret ptr %3
}

; Function Attrs: mustprogress nounwind uwtable
define linkonce_odr hidden noundef zeroext i1 @_ZN4llvm13isa_impl_wrapINS_14SCEVAddRecExprEKPKNS_4SCEVES4_E4doitERS5_(ptr noundef nonnull align 8 dereferenceable(8) %0) #1 comdat align 2 {
  %2 = alloca ptr, align 8
  %3 = alloca ptr, align 8
  store ptr %0, ptr %2, align 8
  %4 = load ptr, ptr %2, align 8
  %5 = call noundef ptr @_ZN4llvm13simplify_typeIKPKNS_4SCEVEE18getSimplifiedValueERS4_(ptr noundef nonnull align 8 dereferenceable(8) %4)
  store ptr %5, ptr %3, align 8
  %6 = call noundef zeroext i1 @_ZN4llvm13isa_impl_wrapINS_14SCEVAddRecExprEPKNS_4SCEVES4_E4doitERKS4_(ptr noundef nonnull align 8 dereferenceable(8) %3)
  ret i1 %6
}

; Function Attrs: mustprogress nounwind uwtable
define linkonce_odr hidden noundef ptr @_ZN4llvm8CastInfoINS_14SCEVAddRecExprEPKNS_4SCEVEvE6doCastERKS4_(ptr noundef nonnull align 8 dereferenceable(8) %0) #1 comdat align 2 {
  %2 = alloca ptr, align 8
  store ptr %0, ptr %2, align 8
  %3 = load ptr, ptr %2, align 8
  %4 = load ptr, ptr %3, align 8
  %5 = call noundef ptr @_ZN4llvm16cast_convert_valINS_14SCEVAddRecExprEPKNS_4SCEVES4_E4doitES4_(ptr noundef %4)
  ret ptr %5
}

; Function Attrs: mustprogress nounwind uwtable
define linkonce_odr hidden noundef ptr @_ZN4llvm8CastInfoINS_14SCEVAddRecExprEPKNS_4SCEVEvE10castFailedEv() #1 comdat align 2 {
  ret ptr null
}

; Function Attrs: mustprogress nounwind uwtable
define linkonce_odr hidden noundef zeroext i1 @_ZN4llvm14CastIsPossibleINS_14SCEVAddRecExprEPKNS_4SCEVEvE10isPossibleERKS4_(ptr noundef nonnull align 8 dereferenceable(8) %0) #1 comdat align 2 {
  %2 = alloca ptr, align 8
  store ptr %0, ptr %2, align 8
  %3 = load ptr, ptr %2, align 8
  %4 = call noundef zeroext i1 @_ZN4llvm13isa_impl_wrapINS_14SCEVAddRecExprEKPKNS_4SCEVES4_E4doitERS5_(ptr noundef nonnull align 8 dereferenceable(8) %3)
  ret i1 %4
}

; Function Attrs: mustprogress nounwind uwtable
define linkonce_odr hidden noundef ptr @_ZN4llvm8CastInfoINS_14SCEVAddRecExprEPKNS_4SCEVEvE16doCastIfPossibleERKS4_(ptr noundef nonnull align 8 dereferenceable(8) %0) #1 comdat align 2 {
  %2 = alloca ptr, align 8
  %3 = alloca ptr, align 8
  store ptr %0, ptr %3, align 8
  %4 = load ptr, ptr %3, align 8
  %5 = call noundef zeroext i1 @_ZN4llvm14CastIsPossibleINS_14SCEVAddRecExprEPKNS_4SCEVEvE10isPossibleERKS4_(ptr noundef nonnull align 8 dereferenceable(8) %4)
  br i1 %5, label %8, label %6

6:                                                ; preds = %1
  %7 = call noundef ptr @_ZN4llvm8CastInfoINS_14SCEVAddRecExprEPKNS_4SCEVEvE10castFailedEv()
  store ptr %7, ptr %2, align 8
  br label %11

8:                                                ; preds = %1
  %9 = load ptr, ptr %3, align 8
  %10 = call noundef ptr @_ZN4llvm8CastInfoINS_14SCEVAddRecExprEPKNS_4SCEVEvE6doCastERKS4_(ptr noundef nonnull align 8 dereferenceable(8) %9)
  store ptr %10, ptr %2, align 8
  br label %11

11:                                               ; preds = %8, %6
  %12 = load ptr, ptr %2, align 8
  ret ptr %12
}

; Function Attrs: mustprogress nounwind uwtable
define linkonce_odr hidden noundef i32 @_ZNK4llvm12SCEVNAryExpr14getNoWrapFlagsENS_4SCEV11NoWrapFlagsE(ptr noundef nonnull align 8 dereferenceable(48) %0, i32 noundef %1) #1 comdat align 2 {
  %3 = alloca ptr, align 8
  %4 = alloca i32, align 4
  store ptr %0, ptr %3, align 8
  store i32 %1, ptr %4, align 4
  %5 = load ptr, ptr %3, align 8
  %6 = getelementptr inbounds nuw %"class.llvm::SCEV", ptr %5, i32 0, i32 4
  %7 = load i16, ptr %6, align 4
  %8 = zext i16 %7 to i32
  %9 = load i32, ptr %4, align 4
  %10 = and i32 %8, %9
  ret i32 %10
}

; Function Attrs: mustprogress nounwind uwtable
define linkonce_odr hidden noundef ptr @_ZNK4llvm14SCEVAddRecExpr8getStartEv(ptr noundef nonnull align 8 dereferenceable(56) %0) #1 comdat align 2 {
  %2 = alloca ptr, align 8
  store ptr %0, ptr %2, align 8
  %3 = load ptr, ptr %2, align 8
  %4 = getelementptr inbounds nuw %"class.llvm::SCEVNAryExpr", ptr %3, i32 0, i32 1
  %5 = load ptr, ptr %4, align 8
  %6 = getelementptr inbounds ptr, ptr %5, i64 0
  %7 = load ptr, ptr %6, align 8
  ret ptr %7
}

; Function Attrs: mustprogress nounwind uwtable
define linkonce_odr hidden noundef ptr @_ZNK4llvm14SCEVAddRecExpr7getLoopEv(ptr noundef nonnull align 8 dereferenceable(56) %0) #1 comdat align 2 {
  %2 = alloca ptr, align 8
  store ptr %0, ptr %2, align 8
  %3 = load ptr, ptr %2, align 8
  %4 = getelementptr inbounds nuw %"class.llvm::SCEVAddRecExpr", ptr %3, i32 0, i32 1
  %5 = load ptr, ptr %4, align 8
  ret ptr %5
}

; Function Attrs: mustprogress nounwind uwtable
define linkonce_odr hidden noundef ptr @_ZN4llvm8dyn_castINS_14SCEVAddRecExprEKNS_4SCEVEEEDcPT0_(ptr noundef %0) #1 comdat {
  %2 = alloca ptr, align 8
  store ptr %0, ptr %2, align 8
  %3 = call noundef ptr @_ZN4llvm8CastInfoINS_14SCEVAddRecExprEPKNS_4SCEVEvE16doCastIfPossibleERKS4_(ptr noundef nonnull align 8 dereferenceable(8) %2)
  ret ptr %3
}

; Function Attrs: mustprogress nounwind uwtable
define dso_local noundef ptr @_ZNK4llvm14DependenceInfo15zeroCoefficientEPKNS_4SCEVEPKNS_4LoopE(ptr noundef nonnull align 8 dereferenceable(44) %0, ptr noundef %1, ptr noundef %2) #1 align 2 {
  %4 = alloca ptr, align 8
  %5 = alloca ptr, align 8
  %6 = alloca ptr, align 8
  %7 = alloca ptr, align 8
  %8 = alloca ptr, align 8
  store ptr %0, ptr %5, align 8
  store ptr %1, ptr %6, align 8
  store ptr %2, ptr %7, align 8
  %9 = load ptr, ptr %5, align 8
  %10 = load ptr, ptr %6, align 8
  %11 = call noundef ptr @_ZN4llvm8dyn_castINS_14SCEVAddRecExprEKNS_4SCEVEEEDcPT0_(ptr noundef %10)
  store ptr %11, ptr %8, align 8
  %12 = load ptr, ptr %8, align 8
  %13 = icmp ne ptr %12, null
  br i1 %13, label %16, label %14

14:                                               ; preds = %3
  %15 = load ptr, ptr %6, align 8
  store ptr %15, ptr %4, align 8
  br label %40

16:                                               ; preds = %3
  %17 = load ptr, ptr %8, align 8
  %18 = call noundef ptr @_ZNK4llvm14SCEVAddRecExpr7getLoopEv(ptr noundef nonnull align 8 dereferenceable(56) %17)
  %19 = load ptr, ptr %7, align 8
  %20 = icmp eq ptr %18, %19
  br i1 %20, label %21, label %24

21:                                               ; preds = %16
  %22 = load ptr, ptr %8, align 8
  %23 = call noundef ptr @_ZNK4llvm14SCEVAddRecExpr8getStartEv(ptr noundef nonnull align 8 dereferenceable(56) %22)
  store ptr %23, ptr %4, align 8
  br label %40

24:                                               ; preds = %16
  %25 = getelementptr inbounds nuw %"class.llvm::DependenceInfo", ptr %9, i32 0, i32 1
  %26 = load ptr, ptr %25, align 8
  %27 = load ptr, ptr %8, align 8
  %28 = call noundef ptr @_ZNK4llvm14SCEVAddRecExpr8getStartEv(ptr noundef nonnull align 8 dereferenceable(56) %27)
  %29 = load ptr, ptr %7, align 8
  %30 = call noundef ptr @_ZNK4llvm14DependenceInfo15zeroCoefficientEPKNS_4SCEVEPKNS_4LoopE(ptr noundef nonnull align 8 dereferenceable(44) %9, ptr noundef %28, ptr noundef %29)
  %31 = load ptr, ptr %8, align 8
  %32 = getelementptr inbounds nuw %"class.llvm::DependenceInfo", ptr %9, i32 0, i32 1
  %33 = load ptr, ptr %32, align 8
  %34 = call noundef ptr @_ZNK4llvm14SCEVAddRecExpr17getStepRecurrenceERNS_15ScalarEvolutionE(ptr noundef nonnull align 8 dereferenceable(56) %31, ptr noundef nonnull align 8 dereferenceable(1392) %33)
  %35 = load ptr, ptr %8, align 8
  %36 = call noundef ptr @_ZNK4llvm14SCEVAddRecExpr7getLoopEv(ptr noundef nonnull align 8 dereferenceable(56) %35)
  %37 = load ptr, ptr %8, align 8
  %38 = call noundef i32 @_ZNK4llvm12SCEVNAryExpr14getNoWrapFlagsENS_4SCEV11NoWrapFlagsE(ptr noundef nonnull align 8 dereferenceable(48) %37, i32 noundef 7)
  %39 = call noundef ptr @_ZN4llvm15ScalarEvolution13getAddRecExprEPKNS_4SCEVES3_PKNS_4LoopENS1_11NoWrapFlagsE(ptr noundef nonnull align 8 dereferenceable(1392) %26, ptr noundef %30, ptr noundef %34, ptr noundef %36, i32 noundef %38)
  store ptr %39, ptr %4, align 8
  br label %40

40:                                               ; preds = %24, %21, %14
  %41 = load ptr, ptr %4, align 8
  ret ptr %41
}