; Function Attrs: mustprogress nounwind uwtable
define dso_local noundef ptr @_ZNK4llvm14DependenceInfo15zeroCoefficientEPKNS_4SCEVEPKNS_4LoopE(ptr nocapture noundef nonnull readonly align 8 dereferenceable(44) %0, ptr noundef %1, ptr noundef %2) local_unnamed_addr #0 align 2 {
  %4 = getelementptr inbounds nuw i8, ptr %1, i64 24
  %5 = load i16, ptr %4, align 8
  %6 = icmp ne i16 %5, 8
  %.not15 = icmp eq ptr %1, null
  %.not = or i1 %.not15, %6
  br i1 %.not, label %common.ret16, label %7

7:                                                ; preds = %3
  %8 = getelementptr inbounds nuw i8, ptr %1, i64 48
  %9 = load ptr, ptr %8, align 8
  %10 = icmp eq ptr %9, %2
  br i1 %10, label %11, label %15

11:                                               ; preds = %7
  %12 = getelementptr inbounds nuw i8, ptr %1, i64 32
  %13 = load ptr, ptr %12, align 8
  %14 = load ptr, ptr %13, align 8
  br label %common.ret16

common.ret16:                                     ; preds = %3, %11, %15
  %common.ret16.op = phi ptr [ %29, %15 ], [ %14, %11 ], [ %1, %3 ]
  ret ptr %common.ret16.op

15:                                               ; preds = %7
  %16 = getelementptr inbounds nuw i8, ptr %0, i64 8
  %17 = load ptr, ptr %16, align 8
  %18 = getelementptr inbounds nuw i8, ptr %1, i64 32
  %19 = load ptr, ptr %18, align 8
  %20 = load ptr, ptr %19, align 8
  %21 = tail call noundef ptr @_ZNK4llvm14DependenceInfo15zeroCoefficientEPKNS_4SCEVEPKNS_4LoopE(ptr noundef nonnull align 8 dereferenceable(44) %0, ptr noundef %20, ptr noundef %2)
  %22 = load ptr, ptr %16, align 8
  %23 = tail call noundef ptr @_ZNK4llvm14SCEVAddRecExpr17getStepRecurrenceERNS_15ScalarEvolutionE(ptr noundef nonnull align 8 dereferenceable(56) %1, ptr noundef nonnull align 8 dereferenceable(1392) %22)
  %24 = load ptr, ptr %8, align 8
  %25 = getelementptr inbounds nuw i8, ptr %1, i64 28
  %26 = load i16, ptr %25, align 4
  %27 = and i16 %26, 7
  %28 = zext nneg i16 %27 to i32
  %29 = tail call noundef ptr @_ZN4llvm15ScalarEvolution13getAddRecExprEPKNS_4SCEVES3_PKNS_4LoopENS1_11NoWrapFlagsE(ptr noundef nonnull align 8 dereferenceable(1392) %17, ptr noundef %21, ptr noundef %23, ptr noundef %24, i32 noundef %28) #23
  br label %common.ret16
}